; Function Attrs: null_pointer_is_valid sspstrong uwtable
define noalias noundef ptr @wmem_strbuf_new_sized(ptr noundef %0, i64 noundef %1) local_unnamed_addr #0 {
  %3 = tail call noalias dereferenceable_or_null(32) ptr @wmem_alloc(ptr noundef %0, i64 noundef 32) #16
  store ptr %0, ptr %3, align 8
  %4 = getelementptr inbounds nuw i8, ptr %3, i64 16
  store i64 0, ptr %4, align 8
  %.not = icmp eq i64 %1, 0
  %5 = select i1 %.not, i64 16, i64 %1
  %6 = getelementptr inbounds nuw i8, ptr %3, i64 24
  store i64 %5, ptr %6, align 8
  %7 = tail call noalias ptr @wmem_alloc(ptr noundef %0, i64 noundef %5) #16
  %8 = getelementptr inbounds nuw i8, ptr %3, i64 8
  store ptr %7, ptr %8, align 8
  store i8 0, ptr %7, align 1
  ret ptr %3
}